; Function Attrs: mustprogress nounwind uwtable
define void @_ZN6casadi15WeakRefInternalD2Ev(ptr nocapture noundef nonnull align 8 dereferenceable(32) %0) unnamed_addr #5 align 2 personality ptr @__gxx_personality_v0 {
  store ptr getelementptr inbounds ({ [6 x ptr] }, ptr @_ZTVN6casadi20SharedObjectInternalE, i64 0, i32 0, i64 2), ptr %0, align 8
  %2 = getelementptr inbounds i8, ptr %0, i64 16
  %3 = load ptr, ptr %2, align 8
  %.not.i = icmp eq ptr %3, null
  br i1 %.not.i, label %_ZN6casadi20SharedObjectInternalD2Ev.exit, label %4

4:                                                ; preds = %1
  invoke void @_ZN6casadi7WeakRef4killEv(ptr noundef nonnull align 8 dereferenceable(8) %3)
          to label %5 unwind label %9

5:                                                ; preds = %4
  %6 = load ptr, ptr %2, align 8
  %7 = icmp eq ptr %6, null
  br i1 %7, label %_ZN6casadi20SharedObjectInternalD2Ev.exit, label %8

8:                                                ; preds = %5
  tail call void @_ZN6casadi12SharedObjectD2Ev(ptr noundef nonnull align 8 dereferenceable(8) %6) #15
  tail call void @_ZdlPv(ptr noundef nonnull %6) #16
  br label %_ZN6casadi20SharedObjectInternalD2Ev.exit

9:                                                ; preds = %4
  %10 = landingpad { ptr, i32 }
          catch ptr null
  %11 = extractvalue { ptr, i32 } %10, 0
  tail call void @__clang_call_terminate(ptr %11) #17
  unreachable

_ZN6casadi20SharedObjectInternalD2Ev.exit:        ; preds = %1, %5, %8
  ret void
}